target datalayout = "e-m:e-p270:32:32-p271:32:32-p272:64:64-i64:64-i128:128-f80:128-n8:16:32:64-S128"
target triple = "x86_64-pc-linux-gnu"

%union.pthread_mutex_t = type { %struct.__pthread_mutex_s }
%struct.__pthread_mutex_s = type { i32, i32, i32, i32, i32, i16, i16, %struct.__pthread_internal_list }
%struct.__pthread_internal_list = type { ptr, ptr }
%struct.lustre_stats_t = type { i64, i64, i64, i64, i64 }
%struct.acct_gather_data = type { i64, i64, i64, i64, i64 }

@plugin_type = dso_local constant [30 x i8] c"acct_gather_filesystem/lustre\00", align 16
@tres_pos = internal global i32 -1, align 4
@acct_gather_filesystem_p_get_data.errors = internal global i32 0, align 4
@.str.4 = private unnamed_addr constant [47 x i8] c"%s: %s: %s: We are not tracking TRES fs/lustre\00", align 1
@__func__.acct_gather_filesystem_p_get_data = private unnamed_addr constant [34 x i8] c"acct_gather_filesystem_p_get_data\00", align 1
@lustre_lock = internal global %union.pthread_mutex_t zeroinitializer, align 8
@.str.5 = private unnamed_addr constant [29 x i8] c"%s: pthread_mutex_lock(): %m\00", align 1
@.str.6 = private unnamed_addr constant [32 x i8] c"%s: cannot read lustre counters\00", align 1
@.str.7 = private unnamed_addr constant [31 x i8] c"%s: pthread_mutex_unlock(): %m\00", align 1
@.str.8 = private unnamed_addr constant [62 x i8] c"%s: %s: %s: lustre counters successfully read after %d errors\00", align 1
@lstats = internal global %struct.lustre_stats_t zeroinitializer, align 8
@lstats_prev = internal global %struct.lustre_stats_t zeroinitializer, align 8

; Function Attrs: nounwind uwtable
define dso_local i32 @acct_gather_filesystem_p_get_data(ptr noundef %0) #0 {
  %2 = alloca i32, align 4
  %3 = alloca ptr, align 8
  %4 = alloca i32, align 4
  %5 = alloca i32, align 4
  %6 = alloca i32, align 4
  %7 = alloca i32, align 4
  %8 = alloca i32, align 4
  store ptr %0, ptr %3, align 8
  call void @llvm.lifetime.start.p0(i64 4, ptr %4) #9
  store i32 0, ptr %4, align 4
  %9 = load i32, ptr @tres_pos, align 4
  %10 = icmp eq i32 %9, -1
  br i1 %10, label %14, label %11

11:                                               ; preds = %1
  %12 = load ptr, ptr %3, align 8
  %13 = icmp ne ptr %12, null
  br i1 %13, label %25, label %14

14:                                               ; preds = %11, %1
  br label %15

15:                                               ; preds = %14
  br label %16

16:                                               ; preds = %15
  %17 = call i32 @slurm_get_log_level()
  %18 = icmp sge i32 %17, 6
  br i1 %18, label %19, label %20

19:                                               ; preds = %16
  call void (i32, ptr, ...) @slurm_log_var(i32 noundef 6, ptr noundef @.str.4, ptr noundef @plugin_type, ptr noundef @__func__.acct_gather_filesystem_p_get_data, ptr noundef @__func__.acct_gather_filesystem_p_get_data)
  br label %20

20:                                               ; preds = %19, %16
  br label %21

21:                                               ; preds = %20
  br label %22

22:                                               ; preds = %21
  br label %23

23:                                               ; preds = %22
  br label %24

24:                                               ; preds = %23
  store i32 0, ptr %2, align 4
  store i32 1, ptr %5, align 4
  br label %123

25:                                               ; preds = %11
  br label %26

26:                                               ; preds = %25
  call void @llvm.lifetime.start.p0(i64 4, ptr %6) #9
  %27 = call i32 @pthread_mutex_lock(ptr noundef @lustre_lock) #9
  store i32 %27, ptr %6, align 4
  %28 = load i32, ptr %6, align 4
  %29 = icmp ne i32 %28, 0
  br i1 %29, label %30, label %33

30:                                               ; preds = %26
  %31 = load i32, ptr %6, align 4
  %32 = call ptr @__errno_location() #10
  store i32 %31, ptr %32, align 4
  call void (ptr, ...) @slurm_fatal_abort(ptr noundef @.str.5, ptr noundef @__func__.acct_gather_filesystem_p_get_data) #11
  unreachable

33:                                               ; preds = %26
  call void @llvm.lifetime.end.p0(i64 4, ptr %6) #9
  br label %34

34:                                               ; preds = %33
  br label %35

35:                                               ; preds = %34
  %36 = load i32, ptr @acct_gather_filesystem_p_get_data.errors, align 4
  %37 = icmp ne i32 %36, 0
  %38 = call i32 @_read_lustre_counters(i1 noundef zeroext %37)
  %39 = icmp ne i32 %38, 0
  br i1 %39, label %40, label %58

40:                                               ; preds = %35
  %41 = load i32, ptr @acct_gather_filesystem_p_get_data.errors, align 4
  %42 = icmp ne i32 %41, 0
  br i1 %42, label %45, label %43

43:                                               ; preds = %40
  %44 = call i32 (ptr, ...) @slurm_error(ptr noundef @.str.6, ptr noundef @__func__.acct_gather_filesystem_p_get_data)
  br label %45

45:                                               ; preds = %43, %40
  %46 = load i32, ptr @acct_gather_filesystem_p_get_data.errors, align 4
  %47 = add nsw i32 %46, 1
  store i32 %47, ptr @acct_gather_filesystem_p_get_data.errors, align 4
  br label %48

48:                                               ; preds = %45
  call void @llvm.lifetime.start.p0(i64 4, ptr %7) #9
  %49 = call i32 @pthread_mutex_unlock(ptr noundef @lustre_lock) #9
  store i32 %49, ptr %7, align 4
  %50 = load i32, ptr %7, align 4
  %51 = icmp ne i32 %50, 0
  br i1 %51, label %52, label %55

52:                                               ; preds = %48
  %53 = load i32, ptr %7, align 4
  %54 = call ptr @__errno_location() #10
  store i32 %53, ptr %54, align 4
  call void (ptr, ...) @slurm_fatal_abort(ptr noundef @.str.7, ptr noundef @__func__.acct_gather_filesystem_p_get_data) #11
  unreachable

55:                                               ; preds = %48
  call void @llvm.lifetime.end.p0(i64 4, ptr %7) #9
  br label %56

56:                                               ; preds = %55
  br label %57

57:                                               ; preds = %56
  store i32 -1, ptr %2, align 4
  store i32 1, ptr %5, align 4
  br label %123

58:                                               ; preds = %35
  %59 = load i32, ptr @acct_gather_filesystem_p_get_data.errors, align 4
  %60 = icmp ne i32 %59, 0
  br i1 %60, label %61, label %73

61:                                               ; preds = %58
  br label %62

62:                                               ; preds = %61
  br label %63

63:                                               ; preds = %62
  %64 = call i32 @slurm_get_log_level()
  %65 = icmp sge i32 %64, 3
  br i1 %65, label %66, label %68

66:                                               ; preds = %63
  %67 = load i32, ptr @acct_gather_filesystem_p_get_data.errors, align 4
  call void (i32, ptr, ...) @slurm_log_var(i32 noundef 3, ptr noundef @.str.8, ptr noundef @plugin_type, ptr noundef @__func__.acct_gather_filesystem_p_get_data, ptr noundef @__func__.acct_gather_filesystem_p_get_data, i32 noundef %67)
  br label %68

68:                                               ; preds = %66, %63
  br label %69

69:                                               ; preds = %68
  br label %70

70:                                               ; preds = %69
  br label %71

71:                                               ; preds = %70
  br label %72

72:                                               ; preds = %71
  store i32 0, ptr @acct_gather_filesystem_p_get_data.errors, align 4
  br label %73

73:                                               ; preds = %72, %58
  %74 = load i64, ptr getelementptr inbounds nuw (%struct.lustre_stats_t, ptr @lstats, i32 0, i32 2), align 8
  %75 = load i64, ptr getelementptr inbounds nuw (%struct.lustre_stats_t, ptr @lstats_prev, i32 0, i32 2), align 8
  %76 = sub i64 %74, %75
  %77 = load ptr, ptr %3, align 8
  %78 = load i32, ptr @tres_pos, align 4
  %79 = sext i32 %78 to i64
  %80 = getelementptr inbounds %struct.acct_gather_data, ptr %77, i64 %79
  %81 = getelementptr inbounds nuw %struct.acct_gather_data, ptr %80, i32 0, i32 1
  store i64 %76, ptr %81, align 8
  %82 = load i64, ptr getelementptr inbounds nuw (%struct.lustre_stats_t, ptr @lstats, i32 0, i32 1), align 8
  %83 = load i64, ptr getelementptr inbounds nuw (%struct.lustre_stats_t, ptr @lstats_prev, i32 0, i32 1), align 8
  %84 = sub i64 %82, %83
  %85 = load ptr, ptr %3, align 8
  %86 = load i32, ptr @tres_pos, align 4
  %87 = sext i32 %86 to i64
  %88 = getelementptr inbounds %struct.acct_gather_data, ptr %85, i64 %87
  %89 = getelementptr inbounds nuw %struct.acct_gather_data, ptr %88, i32 0, i32 2
  store i64 %84, ptr %89, align 8
  %90 = load i64, ptr getelementptr inbounds nuw (%struct.lustre_stats_t, ptr @lstats, i32 0, i32 4), align 8
  %91 = load i64, ptr getelementptr inbounds nuw (%struct.lustre_stats_t, ptr @lstats_prev, i32 0, i32 4), align 8
  %92 = sub i64 %90, %91
  %93 = uitofp i64 %92 to double
  %94 = fdiv double %93, 0x4130000000000000
  %95 = fptoui double %94 to i64
  %96 = load ptr, ptr %3, align 8
  %97 = load i32, ptr @tres_pos, align 4
  %98 = sext i32 %97 to i64
  %99 = getelementptr inbounds %struct.acct_gather_data, ptr %96, i64 %98
  %100 = getelementptr inbounds nuw %struct.acct_gather_data, ptr %99, i32 0, i32 3
  store i64 %95, ptr %100, align 8
  %101 = load i64, ptr getelementptr inbounds nuw (%struct.lustre_stats_t, ptr @lstats, i32 0, i32 3), align 8
  %102 = load i64, ptr getelementptr inbounds nuw (%struct.lustre_stats_t, ptr @lstats_prev, i32 0, i32 3), align 8
  %103 = sub i64 %101, %102
  %104 = uitofp i64 %103 to double
  %105 = fdiv double %104, 0x4130000000000000
  %106 = fptoui double %105 to i64
  %107 = load ptr, ptr %3, align 8
  %108 = load i32, ptr @tres_pos, align 4
  %109 = sext i32 %108 to i64
  %110 = getelementptr inbounds %struct.acct_gather_data, ptr %107, i64 %109
  %111 = getelementptr inbounds nuw %struct.acct_gather_data, ptr %110, i32 0, i32 4
  store i64 %106, ptr %111, align 8
  call void @llvm.memcpy.p0.p0.i64(ptr align 8 @lstats_prev, ptr align 8 @lstats, i64 40, i1 false)
  br label %112

112:                                              ; preds = %73
  call void @llvm.lifetime.start.p0(i64 4, ptr %8) #9
  %113 = call i32 @pthread_mutex_unlock(ptr noundef @lustre_lock) #9
  store i32 %113, ptr %8, align 4
  %114 = load i32, ptr %8, align 4
  %115 = icmp ne i32 %114, 0
  br i1 %115, label %116, label %119

116:                                              ; preds = %112
  %117 = load i32, ptr %8, align 4
  %118 = call ptr @__errno_location() #10
  store i32 %117, ptr %118, align 4
  call void (ptr, ...) @slurm_fatal_abort(ptr noundef @.str.7, ptr noundef @__func__.acct_gather_filesystem_p_get_data) #11
  unreachable

119:                                              ; preds = %112
  call void @llvm.lifetime.end.p0(i64 4, ptr %8) #9
  br label %120

120:                                              ; preds = %119
  br label %121

121:                                              ; preds = %120
  %122 = load i32, ptr %4, align 4
  store i32 %122, ptr %2, align 4
  store i32 1, ptr %5, align 4
  br label %123

123:                                              ; preds = %121, %57, %24
  call void @llvm.lifetime.end.p0(i64 4, ptr %4) #9
  %124 = load i32, ptr %2, align 4
  ret i32 %124
}