; Function Attrs: nounwind uwtable
define dso_local range(i32 -1, 1) i32 @acct_gather_filesystem_p_get_data(ptr noundef writeonly captures(address_is_null) %0) local_unnamed_addr #0 {
  %2 = load i32, ptr @tres_pos, align 4
  %3 = icmp ne i32 %2, -1
  %4 = icmp ne ptr %0, null
  %or.cond = and i1 %4, %3
  br i1 %or.cond, label %9, label %5

5:                                                ; preds = %1
  %6 = tail call i32 @slurm_get_log_level() #11
  %7 = icmp sgt i32 %6, 5
  br i1 %7, label %8, label %62

8:                                                ; preds = %5
  tail call void (i32, ptr, ...) @slurm_log_var(i32 noundef 6, ptr noundef nonnull @.str.4, ptr noundef nonnull @plugin_type, ptr noundef nonnull @__func__.acct_gather_filesystem_p_get_data, ptr noundef nonnull @__func__.acct_gather_filesystem_p_get_data) #11
  br label %62

9:                                                ; preds = %1
  %10 = tail call i32 @pthread_mutex_lock(ptr noundef nonnull @lustre_lock) #11
  %.not = icmp eq i32 %10, 0
  br i1 %.not, label %13, label %11

11:                                               ; preds = %9
  %12 = tail call ptr @__errno_location() #12
  store i32 %10, ptr %12, align 4
  tail call void (ptr, ...) @slurm_fatal_abort(ptr noundef nonnull @.str.5, ptr noundef nonnull @__func__.acct_gather_filesystem_p_get_data) #13
  unreachable

13:                                               ; preds = %9
  %14 = load i32, ptr @acct_gather_filesystem_p_get_data.errors, align 4
  %15 = icmp ne i32 %14, 0
  %16 = tail call fastcc i32 @_read_lustre_counters(i1 noundef zeroext %15)
  %.not17 = icmp eq i32 %16, 0
  %17 = load i32, ptr @acct_gather_filesystem_p_get_data.errors, align 4
  %.not18 = icmp eq i32 %17, 0
  br i1 %.not17, label %27, label %18

18:                                               ; preds = %13
  br i1 %.not18, label %19, label %21

19:                                               ; preds = %18
  %20 = tail call i32 (ptr, ...) @slurm_error(ptr noundef nonnull @.str.6, ptr noundef nonnull @__func__.acct_gather_filesystem_p_get_data) #11
  %.pre = load i32, ptr @acct_gather_filesystem_p_get_data.errors, align 4
  br label %21

21:                                               ; preds = %19, %18
  %22 = phi i32 [ %.pre, %19 ], [ %17, %18 ]
  %23 = add nsw i32 %22, 1
  store i32 %23, ptr @acct_gather_filesystem_p_get_data.errors, align 4
  %24 = tail call i32 @pthread_mutex_unlock(ptr noundef nonnull @lustre_lock) #11
  %.not21 = icmp eq i32 %24, 0
  br i1 %.not21, label %62, label %25

25:                                               ; preds = %21
  %26 = tail call ptr @__errno_location() #12
  store i32 %24, ptr %26, align 4
  tail call void (ptr, ...) @slurm_fatal_abort(ptr noundef nonnull @.str.7, ptr noundef nonnull @__func__.acct_gather_filesystem_p_get_data) #13
  unreachable

27:                                               ; preds = %13
  br i1 %.not18, label %34, label %28

28:                                               ; preds = %27
  %29 = tail call i32 @slurm_get_log_level() #11
  %30 = icmp sgt i32 %29, 2
  br i1 %30, label %31, label %33

31:                                               ; preds = %28
  %32 = load i32, ptr @acct_gather_filesystem_p_get_data.errors, align 4
  tail call void (i32, ptr, ...) @slurm_log_var(i32 noundef 3, ptr noundef nonnull @.str.8, ptr noundef nonnull @plugin_type, ptr noundef nonnull @__func__.acct_gather_filesystem_p_get_data, ptr noundef nonnull @__func__.acct_gather_filesystem_p_get_data, i32 noundef %32) #11
  br label %33

33:                                               ; preds = %31, %28
  store i32 0, ptr @acct_gather_filesystem_p_get_data.errors, align 4
  br label %34

34:                                               ; preds = %33, %27
  %35 = load i64, ptr getelementptr inbounds nuw (i8, ptr @lstats, i64 16), align 8
  %36 = load i64, ptr getelementptr inbounds nuw (i8, ptr @lstats_prev, i64 16), align 8
  %37 = sub i64 %35, %36
  %38 = load i32, ptr @tres_pos, align 4
  %39 = sext i32 %38 to i64
  %40 = getelementptr inbounds %struct.acct_gather_data, ptr %0, i64 %39, i32 1
  store i64 %37, ptr %40, align 8
  %41 = load i64, ptr getelementptr inbounds nuw (i8, ptr @lstats, i64 8), align 8
  %42 = load i64, ptr getelementptr inbounds nuw (i8, ptr @lstats_prev, i64 8), align 8
  %43 = sub i64 %41, %42
  %44 = getelementptr inbounds %struct.acct_gather_data, ptr %0, i64 %39, i32 2
  store i64 %43, ptr %44, align 8
  %45 = load i64, ptr getelementptr inbounds nuw (i8, ptr @lstats, i64 32), align 8
  %46 = load i64, ptr getelementptr inbounds nuw (i8, ptr @lstats_prev, i64 32), align 8
  %47 = sub i64 %45, %46
  %48 = uitofp i64 %47 to double
  %49 = fmul double %48, 0x3EB0000000000000
  %50 = fptoui double %49 to i64
  %51 = getelementptr inbounds %struct.acct_gather_data, ptr %0, i64 %39, i32 3
  store i64 %50, ptr %51, align 8
  %52 = load i64, ptr getelementptr inbounds nuw (i8, ptr @lstats, i64 24), align 8
  %53 = load i64, ptr getelementptr inbounds nuw (i8, ptr @lstats_prev, i64 24), align 8
  %54 = sub i64 %52, %53
  %55 = uitofp i64 %54 to double
  %56 = fmul double %55, 0x3EB0000000000000
  %57 = fptoui double %56 to i64
  %58 = getelementptr inbounds %struct.acct_gather_data, ptr %0, i64 %39, i32 4
  store i64 %57, ptr %58, align 8
  tail call void @llvm.memcpy.p0.p0.i64(ptr noundef nonnull align 8 dereferenceable(40) @lstats_prev, ptr noundef nonnull align 8 dereferenceable(40) @lstats, i64 40, i1 false)
  %59 = tail call i32 @pthread_mutex_unlock(ptr noundef nonnull @lustre_lock) #11
  %.not19 = icmp eq i32 %59, 0
  br i1 %.not19, label %62, label %60

60:                                               ; preds = %34
  %61 = tail call ptr @__errno_location() #12
  store i32 %59, ptr %61, align 4
  tail call void (ptr, ...) @slurm_fatal_abort(ptr noundef nonnull @.str.7, ptr noundef nonnull @__func__.acct_gather_filesystem_p_get_data) #13
  unreachable

62:                                               ; preds = %34, %21, %5, %8
  %.0 = phi i32 [ 0, %8 ], [ 0, %5 ], [ -1, %21 ], [ 0, %34 ]
  ret i32 %.0
}